target datalayout = "e-m:e-p270:32:32-p271:32:32-p272:64:64-i64:64-i128:128-f80:128-n8:16:32:64-S128"
target triple = "x86_64-unknown-linux-gnu"

%"struct.node::AssertionInfo" = type { ptr, ptr, ptr }
%"class.v8::IndirectHandleBase" = type { ptr }
%"class.node::MemoryRetainer" = type { ptr }
%"class.node::crypto::CipherBase" = type <{ %"class.node::BaseObject", %"class.std::unique_ptr.280", i32, i32, i32, [16 x i8], i8, [3 x i8], i32, [4 x i8] }>
%"class.node::BaseObject" = type { %"class.node::MemoryRetainer", %"class.v8::Global.278", ptr, ptr }
%"class.v8::Global.278" = type { %"class.v8::PersistentBase.279" }
%"class.v8::PersistentBase.279" = type { %"class.v8::IndirectHandleBase" }
%"class.std::unique_ptr.280" = type { %"struct.std::__uniq_ptr_data.281" }
%"struct.std::__uniq_ptr_data.281" = type { %"class.std::__uniq_ptr_impl.282" }
%"class.std::__uniq_ptr_impl.282" = type { %"class.std::tuple.283" }
%"class.std::tuple.283" = type { %"struct.std::_Tuple_impl.284" }
%"struct.std::_Tuple_impl.284" = type { %"struct.std::_Head_base.287" }
%"struct.std::_Head_base.287" = type { ptr }

@_ZZNK4node6crypto10CipherBase19IsAuthenticatedModeEvE4args = internal constant %"struct.node::AssertionInfo" { ptr @.str.68, ptr @.str.64, ptr @.str.69 }, align 8

; Function Attrs: mustprogress nounwind uwtable
define linkonce_odr dso_local noundef nonnull align 8 dereferenceable(8) ptr @_ZNSt10_Head_baseILm0EP17evp_cipher_ctx_stLb0EE7_M_headERKS2_(ptr noundef nonnull align 8 dereferenceable(8) %__b) #4 comdat align 2 {
entry:
  %__b.addr = alloca ptr, align 8
  store ptr %__b, ptr %__b.addr, align 8
  %0 = load ptr, ptr %__b.addr, align 8
  %_M_head_impl = getelementptr inbounds %"struct.std::_Head_base.287", ptr %0, i32 0, i32 0
  ret ptr %_M_head_impl
}

; Function Attrs: mustprogress nounwind uwtable
define linkonce_odr dso_local noundef nonnull align 8 dereferenceable(8) ptr @_ZNSt11_Tuple_implILm0EJP17evp_cipher_ctx_stN4node15FunctionDeleterIS0_XadL_Z19EVP_CIPHER_CTX_freeEEEEEE7_M_headERKS5_(ptr noundef nonnull align 8 dereferenceable(8) %__t) #4 comdat align 2 {
entry:
  %__t.addr = alloca ptr, align 8
  store ptr %__t, ptr %__t.addr, align 8
  %0 = load ptr, ptr %__t.addr, align 8
  %call = call noundef nonnull align 8 dereferenceable(8) ptr @_ZNSt10_Head_baseILm0EP17evp_cipher_ctx_stLb0EE7_M_headERKS2_(ptr noundef nonnull align 8 dereferenceable(8) %0) #3
  ret ptr %call
}

; Function Attrs: mustprogress nounwind uwtable
define linkonce_odr dso_local noundef nonnull align 8 dereferenceable(8) ptr @_ZSt12__get_helperILm0EP17evp_cipher_ctx_stJN4node15FunctionDeleterIS0_XadL_Z19EVP_CIPHER_CTX_freeEEEEEERKT0_RKSt11_Tuple_implIXT_EJS5_DpT1_EE(ptr noundef nonnull align 8 dereferenceable(8) %__t) #4 comdat {
entry:
  %__t.addr = alloca ptr, align 8
  store ptr %__t, ptr %__t.addr, align 8
  %0 = load ptr, ptr %__t.addr, align 8
  %call = call noundef nonnull align 8 dereferenceable(8) ptr @_ZNSt11_Tuple_implILm0EJP17evp_cipher_ctx_stN4node15FunctionDeleterIS0_XadL_Z19EVP_CIPHER_CTX_freeEEEEEE7_M_headERKS5_(ptr noundef nonnull align 8 dereferenceable(8) %0) #3
  ret ptr %call
}

; Function Attrs: mustprogress nounwind uwtable
define linkonce_odr dso_local noundef nonnull align 8 dereferenceable(8) ptr @_ZSt3getILm0EJP17evp_cipher_ctx_stN4node15FunctionDeleterIS0_XadL_Z19EVP_CIPHER_CTX_freeEEEEEERKNSt13tuple_elementIXT_ESt5tupleIJDpT0_EEE4typeERKS9_(ptr noundef nonnull align 8 dereferenceable(8) %__t) #4 comdat {
entry:
  %__t.addr = alloca ptr, align 8
  store ptr %__t, ptr %__t.addr, align 8
  %0 = load ptr, ptr %__t.addr, align 8
  %call = call noundef nonnull align 8 dereferenceable(8) ptr @_ZSt12__get_helperILm0EP17evp_cipher_ctx_stJN4node15FunctionDeleterIS0_XadL_Z19EVP_CIPHER_CTX_freeEEEEEERKT0_RKSt11_Tuple_implIXT_EJS5_DpT1_EE(ptr noundef nonnull align 8 dereferenceable(8) %0) #3
  ret ptr %call
}

; Function Attrs: mustprogress nounwind uwtable
define internal noundef zeroext i1 @_ZN4node6crypto12_GLOBAL__N_128IsSupportedAuthenticatedModeEPK13evp_cipher_st(ptr noundef %cipher) #4 {
entry:
  %retval = alloca i1, align 1
  %cipher.addr = alloca ptr, align 8
  store ptr %cipher, ptr %cipher.addr, align 8
  %0 = load ptr, ptr %cipher.addr, align 8
  %call = call i32 @EVP_CIPHER_get_mode(ptr noundef %0)
  switch i32 %call, label %sw.default [
    i32 7, label %sw.bb
    i32 6, label %sw.bb
    i32 65539, label %sw.bb
    i32 0, label %sw.bb1
  ]

sw.bb:                                            ; preds = %entry, %entry, %entry
  store i1 true, ptr %retval, align 1
  br label %return

sw.bb1:                                           ; preds = %entry
  %1 = load ptr, ptr %cipher.addr, align 8
  %call2 = call i32 @EVP_CIPHER_get_nid(ptr noundef %1)
  %cmp = icmp eq i32 %call2, 1018
  store i1 %cmp, ptr %retval, align 1
  br label %return

sw.default:                                       ; preds = %entry
  store i1 false, ptr %retval, align 1
  br label %return

return:                                           ; preds = %sw.default, %sw.bb1, %sw.bb
  %2 = load i1, ptr %retval, align 1
  ret i1 %2
}

; Function Attrs: mustprogress nounwind uwtable
define linkonce_odr dso_local noundef ptr @_ZNKSt15__uniq_ptr_implI17evp_cipher_ctx_stN4node15FunctionDeleterIS0_XadL_Z19EVP_CIPHER_CTX_freeEEEEE6_M_ptrEv(ptr noundef nonnull align 8 dereferenceable(8) %this) #4 comdat align 2 {
entry:
  %this.addr = alloca ptr, align 8
  store ptr %this, ptr %this.addr, align 8
  %this1 = load ptr, ptr %this.addr, align 8
  %_M_t = getelementptr inbounds %"class.std::__uniq_ptr_impl.282", ptr %this1, i32 0, i32 0
  %call = call noundef nonnull align 8 dereferenceable(8) ptr @_ZSt3getILm0EJP17evp_cipher_ctx_stN4node15FunctionDeleterIS0_XadL_Z19EVP_CIPHER_CTX_freeEEEEEERKNSt13tuple_elementIXT_ESt5tupleIJDpT0_EEE4typeERKS9_(ptr noundef nonnull align 8 dereferenceable(8) %_M_t) #3
  %0 = load ptr, ptr %call, align 8
  ret ptr %0
}

; Function Attrs: mustprogress nounwind uwtable
define internal noundef zeroext i1 @_ZN4node6crypto12_GLOBAL__N_128IsSupportedAuthenticatedModeEPK17evp_cipher_ctx_st(ptr noundef %ctx) #4 {
entry:
  %ctx.addr = alloca ptr, align 8
  %cipher = alloca ptr, align 8
  store ptr %ctx, ptr %ctx.addr, align 8
  %0 = load ptr, ptr %ctx.addr, align 8
  %call = call ptr @EVP_CIPHER_CTX_cipher(ptr noundef %0)
  store ptr %call, ptr %cipher, align 8
  %1 = load ptr, ptr %cipher, align 8
  %call1 = call noundef zeroext i1 @_ZN4node6crypto12_GLOBAL__N_128IsSupportedAuthenticatedModeEPK13evp_cipher_st(ptr noundef %1)
  ret i1 %call1
}

; Function Attrs: mustprogress nounwind uwtable
define linkonce_odr dso_local noundef ptr @_ZNKSt10unique_ptrI17evp_cipher_ctx_stN4node15FunctionDeleterIS0_XadL_Z19EVP_CIPHER_CTX_freeEEEEE3getEv(ptr noundef nonnull align 8 dereferenceable(8) %this) #4 comdat align 2 {
entry:
  %this.addr = alloca ptr, align 8
  store ptr %this, ptr %this.addr, align 8
  %this1 = load ptr, ptr %this.addr, align 8
  %_M_t = getelementptr inbounds %"class.std::unique_ptr.280", ptr %this1, i32 0, i32 0
  %call = call noundef ptr @_ZNKSt15__uniq_ptr_implI17evp_cipher_ctx_stN4node15FunctionDeleterIS0_XadL_Z19EVP_CIPHER_CTX_freeEEEEE6_M_ptrEv(ptr noundef nonnull align 8 dereferenceable(8) %_M_t) #3
  ret ptr %call
}

; Function Attrs: mustprogress nounwind uwtable
define linkonce_odr dso_local noundef zeroext i1 @_ZNKSt10unique_ptrI17evp_cipher_ctx_stN4node15FunctionDeleterIS0_XadL_Z19EVP_CIPHER_CTX_freeEEEEEcvbEv(ptr noundef nonnull align 8 dereferenceable(8) %this) #4 comdat align 2 {
entry:
  %this.addr = alloca ptr, align 8
  store ptr %this, ptr %this.addr, align 8
  %this1 = load ptr, ptr %this.addr, align 8
  %call = call noundef ptr @_ZNKSt10unique_ptrI17evp_cipher_ctx_stN4node15FunctionDeleterIS0_XadL_Z19EVP_CIPHER_CTX_freeEEEEE3getEv(ptr noundef nonnull align 8 dereferenceable(8) %this1) #3
  %cmp = icmp eq ptr %call, null
  %cond = select i1 %cmp, i1 false, i1 true
  ret i1 %cond
}

; Function Attrs: mustprogress nounwind uwtable
define dso_local noundef zeroext i1 @_ZNK4node6crypto10CipherBase19IsAuthenticatedModeEv(ptr noundef nonnull align 8 dereferenceable(76) %this) #4 align 2 {
entry:
  %this.addr = alloca ptr, align 8
  store ptr %this, ptr %this.addr, align 8
  %this1 = load ptr, ptr %this.addr, align 8
  br label %do.body

do.body:                                          ; preds = %entry
  %ctx_ = getelementptr inbounds %"class.node::crypto::CipherBase", ptr %this1, i32 0, i32 1
  %call = call noundef zeroext i1 @_ZNKSt10unique_ptrI17evp_cipher_ctx_stN4node15FunctionDeleterIS0_XadL_Z19EVP_CIPHER_CTX_freeEEEEEcvbEv(ptr noundef nonnull align 8 dereferenceable(8) %ctx_) #3
  %lnot = xor i1 %call, true
  %lnot2 = xor i1 %lnot, true
  %lnot3 = xor i1 %lnot2, true
  br i1 %lnot3, label %if.then, label %if.end

if.then:                                          ; preds = %do.body
  br label %do.body4

do.body4:                                         ; preds = %if.then
  call void @_ZN4node6AssertERKNS_13AssertionInfoE(ptr noundef nonnull align 8 dereferenceable(24) @_ZZNK4node6crypto10CipherBase19IsAuthenticatedModeEvE4args)
  call void @abort() #15
  unreachable

do.end:                                           ; No predecessors!
  br label %if.end

if.end:                                           ; preds = %do.end, %do.body
  br label %do.end5

do.end5:                                          ; preds = %if.end
  %ctx_6 = getelementptr inbounds %"class.node::crypto::CipherBase", ptr %this1, i32 0, i32 1
  %call7 = call noundef ptr @_ZNKSt10unique_ptrI17evp_cipher_ctx_stN4node15FunctionDeleterIS0_XadL_Z19EVP_CIPHER_CTX_freeEEEEE3getEv(ptr noundef nonnull align 8 dereferenceable(8) %ctx_6) #3
  %call8 = call noundef zeroext i1 @_ZN4node6crypto12_GLOBAL__N_128IsSupportedAuthenticatedModeEPK17evp_cipher_ctx_st(ptr noundef %call7)
  ret i1 %call8
}