; Function Attrs: mustprogress nounwind uwtable
define dso_local noundef zeroext i1 @_ZNK4node6crypto10CipherBase19IsAuthenticatedModeEv(ptr nocapture noundef nonnull readonly align 8 dereferenceable(76) %this) local_unnamed_addr #3 align 2 {
entry:
  %ctx_ = getelementptr inbounds i8, ptr %this, i64 32
  %0 = load ptr, ptr %ctx_, align 8
  %cmp.i.not = icmp eq ptr %0, null
  br i1 %cmp.i.not, label %do.body4, label %do.end5

do.body4:                                         ; preds = %entry
  tail call void @_ZN4node6AssertERKNS_13AssertionInfoE(ptr noundef nonnull align 8 dereferenceable(24) @_ZZNK4node6crypto10CipherBase19IsAuthenticatedModeEvE4args) #20
  tail call void @abort() #21
  unreachable

do.end5:                                          ; preds = %entry
  %call.i = tail call ptr @EVP_CIPHER_CTX_cipher(ptr noundef nonnull %0) #20
  %call.i.i = tail call i32 @EVP_CIPHER_get_mode(ptr noundef %call.i) #20
  switch i32 %call.i.i, label %sw.default.i.i [
    i32 7, label %_ZN4node6crypto12_GLOBAL__N_128IsSupportedAuthenticatedModeEPK17evp_cipher_ctx_st.exit
    i32 6, label %_ZN4node6crypto12_GLOBAL__N_128IsSupportedAuthenticatedModeEPK17evp_cipher_ctx_st.exit
    i32 65539, label %_ZN4node6crypto12_GLOBAL__N_128IsSupportedAuthenticatedModeEPK17evp_cipher_ctx_st.exit
    i32 0, label %sw.bb1.i.i
  ]

sw.bb1.i.i:                                       ; preds = %do.end5
  %call2.i.i = tail call i32 @EVP_CIPHER_get_nid(ptr noundef %call.i) #20
  %cmp.i.i = icmp eq i32 %call2.i.i, 1018
  br label %_ZN4node6crypto12_GLOBAL__N_128IsSupportedAuthenticatedModeEPK17evp_cipher_ctx_st.exit

sw.default.i.i:                                   ; preds = %do.end5
  br label %_ZN4node6crypto12_GLOBAL__N_128IsSupportedAuthenticatedModeEPK17evp_cipher_ctx_st.exit

_ZN4node6crypto12_GLOBAL__N_128IsSupportedAuthenticatedModeEPK17evp_cipher_ctx_st.exit: ; preds = %do.end5, %do.end5, %do.end5, %sw.bb1.i.i, %sw.default.i.i
  %retval.0.i.i = phi i1 [ false, %sw.default.i.i ], [ %cmp.i.i, %sw.bb1.i.i ], [ true, %do.end5 ], [ true, %do.end5 ], [ true, %do.end5 ]
  ret i1 %retval.0.i.i
}